; Function Attrs: mustprogress nofree norecurse nosync nounwind willreturn memory(read, inaccessiblemem: none) uwtable
define dso_local noundef ptr @_ZNK5clang9ParentMap21getParentIgnoreParensEPNS_4StmtE(ptr noundef nonnull readonly align 8 captures(none) dereferenceable(8) %0, ptr noundef %1) local_unnamed_addr #3 align 2 {
  %3 = load ptr, ptr %0, align 8
  %4 = load ptr, ptr %3, align 8
  %5 = getelementptr inbounds nuw i8, ptr %3, i64 16
  %6 = load i32, ptr %5, align 8
  %7 = icmp eq i32 %6, 0
  %8 = add i32 %6, -1
  br i1 %7, label %_ZN4llvm15isa_and_nonnullIJN5clang9ParenExprEEPNS1_4StmtEEEbRKT0_.exit.thread, label %.split

.split:                                           ; preds = %2, %_ZN4llvm15isa_and_nonnullIJN5clang9ParenExprEEPNS1_4StmtEEEbRKT0_.exit
  %.0 = phi ptr [ %29, %_ZN4llvm15isa_and_nonnullIJN5clang9ParenExprEEPNS1_4StmtEEEbRKT0_.exit ], [ %1, %2 ]
  %9 = ptrtoint ptr %.0 to i64
  %10 = trunc i64 %9 to i32
  %11 = lshr i32 %10, 4
  %12 = lshr i32 %10, 9
  %13 = xor i32 %11, %12
  %.01618.i.i.i.i = and i32 %8, %13
  %14 = zext nneg i32 %.01618.i.i.i.i to i64
  %15 = getelementptr inbounds nuw %"struct.llvm::detail::DenseMapPair", ptr %4, i64 %14
  %16 = load ptr, ptr %15, align 8
  %17 = icmp eq ptr %.0, %16
  br i1 %17, label %_ZNK5clang9ParentMap9getParentEPNS_4StmtE.exit, label %.lr.ph.i.i.i.i

.lr.ph.i.i.i.i:                                   ; preds = %.split, %20
  %18 = phi ptr [ %25, %20 ], [ %16, %.split ]
  %.01620.i.i.i.i = phi i32 [ %.016.i.i.i.i, %20 ], [ %.01618.i.i.i.i, %.split ]
  %.01519.i.i.i.i = phi i32 [ %21, %20 ], [ 1, %.split ]
  %19 = icmp eq ptr %18, inttoptr (i64 -4096 to ptr)
  br i1 %19, label %_ZN4llvm15isa_and_nonnullIJN5clang9ParenExprEEPNS1_4StmtEEEbRKT0_.exit.thread, label %20

20:                                               ; preds = %.lr.ph.i.i.i.i
  %21 = add i32 %.01519.i.i.i.i, 1
  %22 = add i32 %.01519.i.i.i.i, %.01620.i.i.i.i
  %.016.i.i.i.i = and i32 %22, %8
  %23 = zext i32 %.016.i.i.i.i to i64
  %24 = getelementptr inbounds nuw %"struct.llvm::detail::DenseMapPair", ptr %4, i64 %23
  %25 = load ptr, ptr %24, align 8
  %26 = icmp eq ptr %.0, %25
  br i1 %26, label %_ZNK5clang9ParentMap9getParentEPNS_4StmtE.exit, label %.lr.ph.i.i.i.i, !llvm.loop !12

_ZNK5clang9ParentMap9getParentEPNS_4StmtE.exit:   ; preds = %20, %.split
  %27 = phi i64 [ %14, %.split ], [ %23, %20 ]
  %28 = getelementptr inbounds nuw %"struct.llvm::detail::DenseMapPair", ptr %4, i64 %27, i32 0, i32 1
  %29 = load ptr, ptr %28, align 8
  %.not.i.i = icmp eq ptr %29, null
  br i1 %.not.i.i, label %_ZN4llvm15isa_and_nonnullIJN5clang9ParenExprEEPNS1_4StmtEEEbRKT0_.exit.thread, label %_ZN4llvm15isa_and_nonnullIJN5clang9ParenExprEEPNS1_4StmtEEEbRKT0_.exit

_ZN4llvm15isa_and_nonnullIJN5clang9ParenExprEEPNS1_4StmtEEEbRKT0_.exit: ; preds = %_ZNK5clang9ParentMap9getParentEPNS_4StmtE.exit
  %30 = load i8, ptr %29, align 8
  %31 = icmp eq i8 %30, 21
  br i1 %31, label %.split, label %_ZN4llvm15isa_and_nonnullIJN5clang9ParenExprEEPNS1_4StmtEEEbRKT0_.exit.thread, !llvm.loop !13

_ZN4llvm15isa_and_nonnullIJN5clang9ParenExprEEPNS1_4StmtEEEbRKT0_.exit.thread: ; preds = %_ZN4llvm15isa_and_nonnullIJN5clang9ParenExprEEPNS1_4StmtEEEbRKT0_.exit, %_ZNK5clang9ParentMap9getParentEPNS_4StmtE.exit, %.lr.ph.i.i.i.i, %2
  %.0.i.i69 = phi ptr [ null, %2 ], [ null, %.lr.ph.i.i.i.i ], [ null, %_ZNK5clang9ParentMap9getParentEPNS_4StmtE.exit ], [ %29, %_ZN4llvm15isa_and_nonnullIJN5clang9ParenExprEEPNS1_4StmtEEEbRKT0_.exit ]
  ret ptr %.0.i.i69
}